; ModuleID = 'source-C-CXX/27/217.c'
source_filename = "source-C-CXX/27/217.c"
target datalayout = "e-m:e-p270:32:32-p271:32:32-p272:64:64-i64:64-f80:128-n8:16:32:64-S128"
target triple = "x86_64-pc-linux-gnu"

@.str.1 = private unnamed_addr constant [3 x i8] c"%d\00", align 1

; Function Attrs: nounwind sspstrong uwtable
define dso_local void @main() local_unnamed_addr #0 {
  %1 = alloca [1000 x i8], align 16
  %2 = getelementptr inbounds [1000 x i8], [1000 x i8]* %1, i64 0, i64 0
  call void @llvm.lifetime.start.p0i8(i64 1000, i8* nonnull %2) #5
  %3 = call i32 (i8*, ...) bitcast (i32 (...)* @gets to i32 (i8*, ...)*)(i8* nonnull %2) #5
  %4 = load i8, i8* %2, align 16, !tbaa !5
  %5 = icmp eq i8 %4, 0
  br i1 %5, label %40, label %6

6:                                                ; preds = %0, %33
  %7 = phi i32 [ %29, %33 ], [ 0, %0 ]
  %8 = phi i64 [ %21, %33 ], [ 0, %0 ]
  %9 = shl i64 %8, 32
  %10 = ashr exact i64 %9, 32
  br label %11

11:                                               ; preds = %11, %6
  %12 = phi i64 [ %16, %11 ], [ %10, %6 ]
  %13 = getelementptr inbounds [1000 x i8], [1000 x i8]* %1, i64 0, i64 %12
  %14 = load i8, i8* %13, align 1, !tbaa !5
  %15 = icmp eq i8 %14, 32
  %16 = add i64 %12, 1
  br i1 %15, label %11, label %17, !llvm.loop !8

17:                                               ; preds = %11
  %18 = shl i64 %12, 32
  %19 = ashr exact i64 %18, 32
  br label %20

20:                                               ; preds = %17, %25
  %21 = phi i64 [ %19, %17 ], [ %27, %25 ]
  %22 = phi i32 [ 0, %17 ], [ %26, %25 ]
  %23 = getelementptr inbounds [1000 x i8], [1000 x i8]* %1, i64 0, i64 %21
  %24 = load i8, i8* %23, align 1, !tbaa !5
  switch i8 %24, label %25 [
    i8 32, label %28
    i8 0, label %28
  ]

25:                                               ; preds = %20
  %26 = add nuw nsw i32 %22, 1
  %27 = add i64 %21, 1
  br label %20, !llvm.loop !10

28:                                               ; preds = %20, %20
  %29 = add nuw nsw i32 %7, 1
  %30 = icmp eq i32 %7, 0
  br i1 %30, label %33, label %31

31:                                               ; preds = %28
  %32 = call i32 @putchar(i32 44)
  br label %33

33:                                               ; preds = %31, %28
  %34 = call i32 (i8*, ...) @printf(i8* nonnull dereferenceable(1) getelementptr inbounds ([3 x i8], [3 x i8]* @.str.1, i64 0, i64 0), i32 %22)
  %35 = shl i64 %21, 32
  %36 = ashr exact i64 %35, 32
  %37 = getelementptr inbounds [1000 x i8], [1000 x i8]* %1, i64 0, i64 %36
  %38 = load i8, i8* %37, align 1, !tbaa !5
  %39 = icmp eq i8 %38, 0
  br i1 %39, label %40, label %6, !llvm.loop !11

40:                                               ; preds = %33, %0
  %41 = call i32 @putchar(i32 10)
  call void @llvm.lifetime.end.p0i8(i64 1000, i8* nonnull %2) #5
  ret void
}

; Function Attrs: argmemonly mustprogress nofree nosync nounwind willreturn
declare void @llvm.lifetime.start.p0i8(i64 immarg, i8* nocapture) #1

declare i32 @gets(...) local_unnamed_addr #2

; Function Attrs: nofree nounwind
declare noundef i32 @printf(i8* nocapture noundef readonly, ...) local_unnamed_addr #3

; Function Attrs: argmemonly mustprogress nofree nosync nounwind willreturn
declare void @llvm.lifetime.end.p0i8(i64 immarg, i8* nocapture) #1

; Function Attrs: nofree nounwind
declare noundef i32 @putchar(i32 noundef) local_unnamed_addr #4


!llvm.module.flags = !{!0, !1, !2, !3}
!llvm.ident = !{!4}

!0 = !{i32 1, !"wchar_size", i32 4}
!1 = !{i32 7, !"PIC Level", i32 2}
!2 = !{i32 7, !"PIE Level", i32 2}
!3 = !{i32 7, !"uwtable", i32 1}
!4 = !{!"clang version 13.0.0"}
!5 = !{!6, !6, i64 0}
!6 = !{!"omnipotent char", !7, i64 0}
!7 = !{!"Simple C/C++ TBAA"}
!8 = distinct !{!8, !9}
!9 = !{!"llvm.loop.mustprogress"}
!10 = distinct !{!10, !9}
!11 = distinct !{!11, !9}
